; Function Attrs: mustprogress uwtable
define hidden noundef zeroext i1 @_ZNK4cvc58internal4prop10PropEngine7isFixedENS0_12NodeTemplateILb0EEE(ptr noundef nonnull readonly align 8 captures(none) dereferenceable(416) %0, ptr noundef readonly captures(none) %1) local_unnamed_addr #4 align 2 personality ptr @__gxx_personality_v0 {
  %3 = alloca %"class.cvc5::internal::NodeTemplate.484", align 8
  %4 = alloca %"class.cvc5::internal::NodeTemplate.484", align 8
  %5 = load ptr, ptr %1, align 8, !tbaa !302
  call void @llvm.lifetime.start.p0(i64 8, ptr nonnull %3)
  %6 = getelementptr inbounds nuw i8, ptr %0, i64 80
  %7 = load ptr, ptr %6, align 8, !tbaa !273
  store ptr %5, ptr %3, align 8, !tbaa !302
  %8 = call noundef zeroext i1 @_ZNK4cvc58internal4prop9CnfStream10hasLiteralENS0_12NodeTemplateILb0EEE(ptr noundef nonnull align 8 dereferenceable(352) %7, ptr noundef nonnull %3)
  call void @llvm.lifetime.end.p0(i64 8, ptr nonnull %3)
  br i1 %8, label %9, label %20

9:                                                ; preds = %2
  %10 = getelementptr inbounds nuw i8, ptr %0, i64 48
  %11 = load ptr, ptr %10, align 8, !tbaa !271
  %12 = load ptr, ptr %6, align 8, !tbaa !273
  %13 = load ptr, ptr %1, align 8, !tbaa !302
  store ptr %13, ptr %4, align 8, !tbaa !302
  %14 = call i64 @_ZN4cvc58internal4prop9CnfStream10getLiteralENS0_12NodeTemplateILb0EEE(ptr noundef nonnull align 8 dereferenceable(352) %12, ptr noundef nonnull %4)
  %15 = lshr i64 %14, 1
  %16 = load ptr, ptr %11, align 8, !tbaa !3
  %17 = getelementptr inbounds nuw i8, ptr %16, i64 192
  %18 = load ptr, ptr %17, align 8
  %19 = call noundef zeroext i1 %18(ptr noundef nonnull align 8 dereferenceable(8) %11, i64 noundef %15)
  br label %20

20:                                               ; preds = %9, %2
  %.04 = phi i1 [ false, %2 ], [ %19, %9 ]
  ret i1 %.04
}